; ModuleID = 'bench/gromacs/original/clfftinitializer.cpp.ll'
source_filename = "bench/gromacs/original/clfftinitializer.cpp.ll"
target datalayout = "e-m:e-p270:32:32-p271:32:32-p272:64:64-i64:64-i128:128-f80:128-n8:16:32:64-S128"
target triple = "x86_64-pc-linux-gnu"

@_ZN3gmx16ClfftInitializerC1Ev = unnamed_addr alias void (ptr), ptr @_ZN3gmx16ClfftInitializerC2Ev
@_ZN3gmx16ClfftInitializerD1Ev = unnamed_addr alias void (ptr), ptr @_ZN3gmx16ClfftInitializerD2Ev

; Function Attrs: mustprogress nofree norecurse nosync nounwind willreturn memory(none) uwtable
define void @_ZN3gmx16ClfftInitializerC2Ev(ptr nocapture nonnull readnone align 1 %0) unnamed_addr #0 align 2 {
  ret void
}

; Function Attrs: mustprogress nofree norecurse nosync nounwind willreturn memory(none) uwtable
define void @_ZN3gmx16ClfftInitializerD2Ev(ptr nocapture nonnull readnone align 1 %0) unnamed_addr #0 align 2 {
  ret void
}


!llvm.module.flags = !{!0, !1, !2, !3, !4}

!0 = !{i32 1, !"wchar_size", i32 4}
!1 = !{i32 7, !"openmp", i32 51}
!2 = !{i32 8, !"PIC Level", i32 2}
!3 = !{i32 7, !"uwtable", i32 2}
!4 = !{i32 7, !"frame-pointer", i32 2}
